(dp0
S'reduce_dimension_algorithm'
p1
NsS'balancing_class_algorithm'
p2
NsS'features_subset'
p3
S'all_features'
p4
sS'training_algorithm'
p5
(dp6
S'random_state'
p7
I0
sS'name'
p8
S'random-forest'
p9
sS'class_weight'
p10
S'balanced'
p11
ssS'scale_option'
p12
NsS'feature_selection_algorithm'
p13
(dp14
S'k'
p15
I100
sg8
S'k-best'
p16
sS'score_func'
p17
csklearn.feature_selection.univariate_selection
chi2
p18
ss.